target datalayout = "e-m:e-p270:32:32-p271:32:32-p272:64:64-i64:64-i128:128-f80:128-n8:16:32:64-S128"
target triple = "x86_64-pc-linux-gnu"

%"class.ZXing::DataMatrix::SymbolInfo" = type { i8, i32, i32, i32, i32, i32, i32, i32 }

@_ZN5ZXing10DataMatrixL9s_symbolsE = internal global ptr @_ZN5ZXing10DataMatrixL12PROD_SYMBOLSE, align 8
@.str = private unnamed_addr constant [42 x i8] c"Cannot handle this number of data regions\00", align 1
@_ZTISt12out_of_range = external constant ptr

; Function Attrs: mustprogress uwtable
define noundef i32 @_ZNK5ZXing10DataMatrix10SymbolInfo19verticalDataRegionsEv(ptr noundef nonnull align 4 dereferenceable(32) %0) #0 align 2 personality ptr @__gxx_personality_v0 {
  %2 = alloca i32, align 4
  %3 = alloca ptr, align 8
  %4 = alloca ptr, align 8
  %5 = alloca i32, align 4
  store ptr %0, ptr %3, align 8, !tbaa !11
  %6 = load ptr, ptr %3, align 8
  %7 = getelementptr inbounds nuw %"class.ZXing::DataMatrix::SymbolInfo", ptr %6, i32 0, i32 5
  %8 = load i32, ptr %7, align 4, !tbaa !23
  switch i32 %8, label %14 [
    i32 1, label %9
    i32 2, label %10
    i32 4, label %11
    i32 16, label %12
    i32 36, label %13
  ]

9:                                                ; preds = %1
  store i32 1, ptr %2, align 4
  br label %21

10:                                               ; preds = %1
  store i32 1, ptr %2, align 4
  br label %21

11:                                               ; preds = %1
  store i32 2, ptr %2, align 4
  br label %21

12:                                               ; preds = %1
  store i32 4, ptr %2, align 4
  br label %21

13:                                               ; preds = %1
  store i32 6, ptr %2, align 4
  br label %21

14:                                               ; preds = %1
  %15 = call ptr @__cxa_allocate_exception(i64 16) #4
  invoke void @_ZNSt12out_of_rangeC1EPKc(ptr noundef nonnull align 8 dereferenceable(16) %15, ptr noundef @.str)
          to label %16 unwind label %17

16:                                               ; preds = %14
  call void @__cxa_throw(ptr %15, ptr @_ZTISt12out_of_range, ptr @_ZNSt12out_of_rangeD1Ev) #5
  unreachable

17:                                               ; preds = %14
  %18 = landingpad { ptr, i32 }
          cleanup
  %19 = extractvalue { ptr, i32 } %18, 0
  store ptr %19, ptr %4, align 8
  %20 = extractvalue { ptr, i32 } %18, 1
  store i32 %20, ptr %5, align 4
  call void @__cxa_free_exception(ptr %15) #4
  br label %23

21:                                               ; preds = %13, %12, %11, %10, %9
  %22 = load i32, ptr %2, align 4
  ret i32 %22

23:                                               ; preds = %17
  %24 = load ptr, ptr %4, align 8
  %25 = load i32, ptr %5, align 4
  %26 = insertvalue { ptr, i32 } poison, ptr %24, 0
  %27 = insertvalue { ptr, i32 } %26, i32 %25, 1
  resume { ptr, i32 } %27
}

; Function Attrs: mustprogress uwtable
define linkonce_odr noundef i32 @_ZNK5ZXing10DataMatrix10SymbolInfo16symbolDataHeightEv(ptr noundef nonnull align 4 dereferenceable(32) %0) #0 comdat align 2 {
  %2 = alloca ptr, align 8
  store ptr %0, ptr %2, align 8, !tbaa !11
  %3 = load ptr, ptr %2, align 8
  %4 = call noundef i32 @_ZNK5ZXing10DataMatrix10SymbolInfo19verticalDataRegionsEv(ptr noundef nonnull align 4 dereferenceable(32) %3)
  %5 = getelementptr inbounds nuw %"class.ZXing::DataMatrix::SymbolInfo", ptr %3, i32 0, i32 4
  %6 = load i32, ptr %5, align 4, !tbaa !25
  %7 = mul nsw i32 %4, %6
  ret i32 %7
}

; Function Attrs: mustprogress uwtable
define noundef i32 @_ZNK5ZXing10DataMatrix10SymbolInfo21horizontalDataRegionsEv(ptr noundef nonnull align 4 dereferenceable(32) %0) #0 align 2 personality ptr @__gxx_personality_v0 {
  %2 = alloca i32, align 4
  %3 = alloca ptr, align 8
  %4 = alloca ptr, align 8
  %5 = alloca i32, align 4
  store ptr %0, ptr %3, align 8, !tbaa !11
  %6 = load ptr, ptr %3, align 8
  %7 = getelementptr inbounds nuw %"class.ZXing::DataMatrix::SymbolInfo", ptr %6, i32 0, i32 5
  %8 = load i32, ptr %7, align 4, !tbaa !23
  switch i32 %8, label %14 [
    i32 1, label %9
    i32 2, label %10
    i32 4, label %11
    i32 16, label %12
    i32 36, label %13
  ]

9:                                                ; preds = %1
  store i32 1, ptr %2, align 4
  br label %21

10:                                               ; preds = %1
  store i32 2, ptr %2, align 4
  br label %21

11:                                               ; preds = %1
  store i32 2, ptr %2, align 4
  br label %21

12:                                               ; preds = %1
  store i32 4, ptr %2, align 4
  br label %21

13:                                               ; preds = %1
  store i32 6, ptr %2, align 4
  br label %21

14:                                               ; preds = %1
  %15 = call ptr @__cxa_allocate_exception(i64 16) #4
  invoke void @_ZNSt12out_of_rangeC1EPKc(ptr noundef nonnull align 8 dereferenceable(16) %15, ptr noundef @.str)
          to label %16 unwind label %17

16:                                               ; preds = %14
  call void @__cxa_throw(ptr %15, ptr @_ZTISt12out_of_range, ptr @_ZNSt12out_of_rangeD1Ev) #5
  unreachable

17:                                               ; preds = %14
  %18 = landingpad { ptr, i32 }
          cleanup
  %19 = extractvalue { ptr, i32 } %18, 0
  store ptr %19, ptr %4, align 8
  %20 = extractvalue { ptr, i32 } %18, 1
  store i32 %20, ptr %5, align 4
  call void @__cxa_free_exception(ptr %15) #4
  br label %23

21:                                               ; preds = %13, %12, %11, %10, %9
  %22 = load i32, ptr %2, align 4
  ret i32 %22

23:                                               ; preds = %17
  %24 = load ptr, ptr %4, align 8
  %25 = load i32, ptr %5, align 4
  %26 = insertvalue { ptr, i32 } poison, ptr %24, 0
  %27 = insertvalue { ptr, i32 } %26, i32 %25, 1
  resume { ptr, i32 } %27
}

; Function Attrs: mustprogress uwtable
define linkonce_odr noundef i32 @_ZNK5ZXing10DataMatrix10SymbolInfo15symbolDataWidthEv(ptr noundef nonnull align 4 dereferenceable(32) %0) #0 comdat align 2 {
  %2 = alloca ptr, align 8
  store ptr %0, ptr %2, align 8, !tbaa !11
  %3 = load ptr, ptr %2, align 8
  %4 = call noundef i32 @_ZNK5ZXing10DataMatrix10SymbolInfo21horizontalDataRegionsEv(ptr noundef nonnull align 4 dereferenceable(32) %3)
  %5 = getelementptr inbounds nuw %"class.ZXing::DataMatrix::SymbolInfo", ptr %3, i32 0, i32 3
  %6 = load i32, ptr %5, align 4, !tbaa !24
  %7 = mul nsw i32 %4, %6
  ret i32 %7
}

; Function Attrs: mustprogress uwtable
define linkonce_odr noundef i32 @_ZNK5ZXing10DataMatrix10SymbolInfo12symbolHeightEv(ptr noundef nonnull align 4 dereferenceable(32) %0) #0 comdat align 2 {
  %2 = alloca ptr, align 8
  store ptr %0, ptr %2, align 8, !tbaa !11
  %3 = load ptr, ptr %2, align 8
  %4 = call noundef i32 @_ZNK5ZXing10DataMatrix10SymbolInfo16symbolDataHeightEv(ptr noundef nonnull align 4 dereferenceable(32) %3)
  %5 = call noundef i32 @_ZNK5ZXing10DataMatrix10SymbolInfo19verticalDataRegionsEv(ptr noundef nonnull align 4 dereferenceable(32) %3)
  %6 = mul nsw i32 %5, 2
  %7 = add nsw i32 %4, %6
  ret i32 %7
}

; Function Attrs: mustprogress uwtable
define linkonce_odr noundef i32 @_ZNK5ZXing10DataMatrix10SymbolInfo11symbolWidthEv(ptr noundef nonnull align 4 dereferenceable(32) %0) #0 comdat align 2 {
  %2 = alloca ptr, align 8
  store ptr %0, ptr %2, align 8, !tbaa !11
  %3 = load ptr, ptr %2, align 8
  %4 = call noundef i32 @_ZNK5ZXing10DataMatrix10SymbolInfo15symbolDataWidthEv(ptr noundef nonnull align 4 dereferenceable(32) %3)
  %5 = call noundef i32 @_ZNK5ZXing10DataMatrix10SymbolInfo21horizontalDataRegionsEv(ptr noundef nonnull align 4 dereferenceable(32) %3)
  %6 = mul nsw i32 %5, 2
  %7 = add nsw i32 %4, %6
  ret i32 %7
}

; Function Attrs: mustprogress uwtable
define noundef ptr @_ZN5ZXing10DataMatrix10SymbolInfo6LookupEiNS0_11SymbolShapeEiiii(i32 noundef %0, i32 noundef %1, i32 noundef %2, i32 noundef %3, i32 noundef %4, i32 noundef %5) #0 align 2 {
  %7 = alloca ptr, align 8
  %8 = alloca i32, align 4
  %9 = alloca i32, align 4
  %10 = alloca i32, align 4
  %11 = alloca i32, align 4
  %12 = alloca i32, align 4
  %13 = alloca i32, align 4
  %14 = alloca i64, align 8
  %15 = alloca i32, align 4
  %16 = alloca ptr, align 8
  store i32 %0, ptr %8, align 4, !tbaa !3
  store i32 %1, ptr %9, align 4, !tbaa !7
  store i32 %2, ptr %10, align 4, !tbaa !3
  store i32 %3, ptr %11, align 4, !tbaa !3
  store i32 %4, ptr %12, align 4, !tbaa !3
  store i32 %5, ptr %13, align 4, !tbaa !3
  call void @llvm.lifetime.start.p0(i64 8, ptr %14) #4
  store i64 0, ptr %14, align 8, !tbaa !9
  br label %17

17:                                               ; preds = %88, %6
  %18 = load i64, ptr %14, align 8, !tbaa !9
  %19 = icmp ult i64 %18, 30
  br i1 %19, label %21, label %20

20:                                               ; preds = %17
  store i32 2, ptr %15, align 4
  br label %91

21:                                               ; preds = %17
  call void @llvm.lifetime.start.p0(i64 8, ptr %16) #4
  %22 = load ptr, ptr @_ZN5ZXing10DataMatrixL9s_symbolsE, align 8, !tbaa !11
  %23 = load i64, ptr %14, align 8, !tbaa !9
  %24 = getelementptr inbounds nuw %"class.ZXing::DataMatrix::SymbolInfo", ptr %22, i64 %23
  store ptr %24, ptr %16, align 8, !tbaa !11
  %25 = load i32, ptr %9, align 4, !tbaa !7
  %26 = icmp eq i32 %25, 1
  br i1 %26, label %27, label %33

27:                                               ; preds = %21
  %28 = load ptr, ptr %16, align 8, !tbaa !11
  %29 = getelementptr inbounds nuw %"class.ZXing::DataMatrix::SymbolInfo", ptr %28, i32 0, i32 0
  %30 = load i8, ptr %29, align 4, !tbaa !14, !range !17, !noundef !18
  %31 = trunc i8 %30 to i1
  br i1 %31, label %32, label %33

32:                                               ; preds = %27
  store i32 4, ptr %15, align 4
  br label %85

33:                                               ; preds = %27, %21
  %34 = load i32, ptr %9, align 4, !tbaa !7
  %35 = icmp eq i32 %34, 2
  br i1 %35, label %36, label %42

36:                                               ; preds = %33
  %37 = load ptr, ptr %16, align 8, !tbaa !11
  %38 = getelementptr inbounds nuw %"class.ZXing::DataMatrix::SymbolInfo", ptr %37, i32 0, i32 0
  %39 = load i8, ptr %38, align 4, !tbaa !14, !range !17, !noundef !18
  %40 = trunc i8 %39 to i1
  br i1 %40, label %42, label %41

41:                                               ; preds = %36
  store i32 4, ptr %15, align 4
  br label %85

42:                                               ; preds = %36, %33
  %43 = load i32, ptr %10, align 4, !tbaa !3
  %44 = icmp sge i32 %43, 0
  br i1 %44, label %45, label %59

45:                                               ; preds = %42
  %46 = load i32, ptr %11, align 4, !tbaa !3
  %47 = icmp sge i32 %46, 0
  br i1 %47, label %48, label %59

48:                                               ; preds = %45
  %49 = load ptr, ptr %16, align 8, !tbaa !11
  %50 = call noundef i32 @_ZNK5ZXing10DataMatrix10SymbolInfo11symbolWidthEv(ptr noundef nonnull align 4 dereferenceable(32) %49)
  %51 = load i32, ptr %10, align 4, !tbaa !3
  %52 = icmp slt i32 %50, %51
  br i1 %52, label %58, label %53

53:                                               ; preds = %48
  %54 = load ptr, ptr %16, align 8, !tbaa !11
  %55 = call noundef i32 @_ZNK5ZXing10DataMatrix10SymbolInfo12symbolHeightEv(ptr noundef nonnull align 4 dereferenceable(32) %54)
  %56 = load i32, ptr %11, align 4, !tbaa !3
  %57 = icmp slt i32 %55, %56
  br i1 %57, label %58, label %59

58:                                               ; preds = %53, %48
  store i32 4, ptr %15, align 4
  br label %85

59:                                               ; preds = %53, %45, %42
  %60 = load i32, ptr %12, align 4, !tbaa !3
  %61 = icmp sge i32 %60, 0
  br i1 %61, label %62, label %76

62:                                               ; preds = %59
  %63 = load i32, ptr %13, align 4, !tbaa !3
  %64 = icmp sge i32 %63, 0
  br i1 %64, label %65, label %76

65:                                               ; preds = %62
  %66 = load ptr, ptr %16, align 8, !tbaa !11
  %67 = call noundef i32 @_ZNK5ZXing10DataMatrix10SymbolInfo11symbolWidthEv(ptr noundef nonnull align 4 dereferenceable(32) %66)
  %68 = load i32, ptr %12, align 4, !tbaa !3
  %69 = icmp sgt i32 %67, %68
  br i1 %69, label %75, label %70

70:                                               ; preds = %65
  %71 = load ptr, ptr %16, align 8, !tbaa !11
  %72 = call noundef i32 @_ZNK5ZXing10DataMatrix10SymbolInfo12symbolHeightEv(ptr noundef nonnull align 4 dereferenceable(32) %71)
  %73 = load i32, ptr %13, align 4, !tbaa !3
  %74 = icmp sgt i32 %72, %73
  br i1 %74, label %75, label %76

75:                                               ; preds = %70, %65
  store i32 4, ptr %15, align 4
  br label %85

76:                                               ; preds = %70, %62, %59
  %77 = load i32, ptr %8, align 4, !tbaa !3
  %78 = load ptr, ptr %16, align 8, !tbaa !11
  %79 = getelementptr inbounds nuw %"class.ZXing::DataMatrix::SymbolInfo", ptr %78, i32 0, i32 1
  %80 = load i32, ptr %79, align 4, !tbaa !19
  %81 = icmp sle i32 %77, %80
  br i1 %81, label %82, label %84

82:                                               ; preds = %76
  %83 = load ptr, ptr %16, align 8, !tbaa !11
  store ptr %83, ptr %7, align 8
  store i32 1, ptr %15, align 4
  br label %85

84:                                               ; preds = %76
  store i32 0, ptr %15, align 4
  br label %85

85:                                               ; preds = %84, %82, %75, %58, %41, %32
  call void @llvm.lifetime.end.p0(i64 8, ptr %16) #4
  %86 = load i32, ptr %15, align 4
  switch i32 %86, label %91 [
    i32 0, label %87
    i32 4, label %88
  ]

87:                                               ; preds = %85
  br label %88

88:                                               ; preds = %87, %85
  %89 = load i64, ptr %14, align 8, !tbaa !9
  %90 = add i64 %89, 1
  store i64 %90, ptr %14, align 8, !tbaa !9
  br label %17, !llvm.loop !20

91:                                               ; preds = %85, %20
  call void @llvm.lifetime.end.p0(i64 8, ptr %14) #4
  %92 = load i32, ptr %15, align 4
  switch i32 %92, label %96 [
    i32 2, label %93
    i32 1, label %94
  ]

93:                                               ; preds = %91
  store ptr null, ptr %7, align 8
  br label %94

94:                                               ; preds = %93, %91
  %95 = load ptr, ptr %7, align 8
  ret ptr %95

96:                                               ; preds = %91
  unreachable
}

; Function Attrs: mustprogress uwtable
define noundef ptr @_ZN5ZXing10DataMatrix10SymbolInfo6LookupEiNS0_11SymbolShapeE(i32 noundef %0, i32 noundef %1) #0 align 2 {
  %3 = alloca i32, align 4
  %4 = alloca i32, align 4
  store i32 %0, ptr %3, align 4, !tbaa !3
  store i32 %1, ptr %4, align 4, !tbaa !7
  %5 = load i32, ptr %3, align 4, !tbaa !3
  %6 = load i32, ptr %4, align 4, !tbaa !7
  %7 = call noundef ptr @_ZN5ZXing10DataMatrix10SymbolInfo6LookupEiNS0_11SymbolShapeEiiii(i32 noundef %5, i32 noundef %6, i32 noundef -1, i32 noundef -1, i32 noundef -1, i32 noundef -1)
  ret ptr %7
}