; Function Attrs: mustprogress nofree norecurse nosync nounwind willreturn memory(none) uwtable
define noundef ptr @_ZN5ZXing10DataMatrix10SymbolInfo6LookupEiNS0_11SymbolShapeE(i32 noundef %0, i32 noundef %1) local_unnamed_addr #0 align 2 {
  switch i32 %1, label %.split.split.split.i [
    i32 1, label %.split.split.split.us.i
    i32 2, label %.split.split.split.us50.i
  ]

.split.split.split.us.i:                          ; preds = %2, %select.unfold.us47.i
  %.02937.us45.i = phi i64 [ %9, %select.unfold.us47.i ], [ 0, %2 ]
  %3 = getelementptr inbounds nuw %"class.ZXing::DataMatrix::SymbolInfo", ptr @_ZN5ZXing10DataMatrixL12PROD_SYMBOLSE, i64 %.02937.us45.i
  %4 = load i8, ptr %3, align 16, !tbaa !11, !range !12, !noundef !13
  %5 = trunc nuw i8 %4 to i1
  br i1 %5, label %select.unfold.us47.i, label %6

6:                                                ; preds = %.split.split.split.us.i
  %7 = getelementptr inbounds nuw i8, ptr %3, i64 4
  %8 = load i32, ptr %7, align 4, !tbaa !3
  %.not.us46.i = icmp sgt i32 %0, %8
  br i1 %.not.us46.i, label %select.unfold.us47.i, label %_ZN5ZXing10DataMatrix10SymbolInfo6LookupEiNS0_11SymbolShapeEiiii.exit

select.unfold.us47.i:                             ; preds = %6, %.split.split.split.us.i
  %9 = add nuw nsw i64 %.02937.us45.i, 1
  %exitcond64.i = icmp eq i64 %9, 30
  br i1 %exitcond64.i, label %_ZN5ZXing10DataMatrix10SymbolInfo6LookupEiNS0_11SymbolShapeEiiii.exit, label %.split.split.split.us.i, !llvm.loop !9

.split.split.split.us50.i:                        ; preds = %2, %select.unfold.us53.i
  %.02937.us51.i = phi i64 [ %16, %select.unfold.us53.i ], [ 0, %2 ]
  %10 = getelementptr inbounds nuw %"class.ZXing::DataMatrix::SymbolInfo", ptr @_ZN5ZXing10DataMatrixL12PROD_SYMBOLSE, i64 %.02937.us51.i
  %11 = load i8, ptr %10, align 16, !tbaa !11, !range !12, !noundef !13
  %12 = trunc nuw i8 %11 to i1
  br i1 %12, label %13, label %select.unfold.us53.i

13:                                               ; preds = %.split.split.split.us50.i
  %14 = getelementptr inbounds nuw i8, ptr %10, i64 4
  %15 = load i32, ptr %14, align 4, !tbaa !3
  %.not.us52.i = icmp sgt i32 %0, %15
  br i1 %.not.us52.i, label %select.unfold.us53.i, label %_ZN5ZXing10DataMatrix10SymbolInfo6LookupEiNS0_11SymbolShapeEiiii.exit

select.unfold.us53.i:                             ; preds = %13, %.split.split.split.us50.i
  %16 = add nuw nsw i64 %.02937.us51.i, 1
  %exitcond.i = icmp eq i64 %16, 30
  br i1 %exitcond.i, label %_ZN5ZXing10DataMatrix10SymbolInfo6LookupEiNS0_11SymbolShapeEiiii.exit, label %.split.split.split.us50.i, !llvm.loop !9

.split.split.split.i:                             ; preds = %2, %select.unfold.i
  %.02937.i = phi i64 [ %20, %select.unfold.i ], [ 0, %2 ]
  %17 = getelementptr inbounds nuw %"class.ZXing::DataMatrix::SymbolInfo", ptr @_ZN5ZXing10DataMatrixL12PROD_SYMBOLSE, i64 %.02937.i
  %18 = getelementptr inbounds nuw i8, ptr %17, i64 4
  %19 = load i32, ptr %18, align 4, !tbaa !3
  %.not.i = icmp sgt i32 %0, %19
  br i1 %.not.i, label %select.unfold.i, label %_ZN5ZXing10DataMatrix10SymbolInfo6LookupEiNS0_11SymbolShapeEiiii.exit

select.unfold.i:                                  ; preds = %.split.split.split.i
  %20 = add nuw nsw i64 %.02937.i, 1
  %exitcond65.i = icmp eq i64 %20, 30
  br i1 %exitcond65.i, label %_ZN5ZXing10DataMatrix10SymbolInfo6LookupEiNS0_11SymbolShapeEiiii.exit, label %.split.split.split.i, !llvm.loop !9

_ZN5ZXing10DataMatrix10SymbolInfo6LookupEiNS0_11SymbolShapeEiiii.exit: ; preds = %13, %select.unfold.us53.i, %6, %select.unfold.us47.i, %.split.split.split.i, %select.unfold.i
  %.us-phi.i = phi ptr [ %17, %.split.split.split.i ], [ null, %select.unfold.i ], [ %3, %6 ], [ null, %select.unfold.us47.i ], [ %10, %13 ], [ null, %select.unfold.us53.i ]
  ret ptr %.us-phi.i
}